(dp0
S'nEM'
p1
F371.0
sS'nMM'
p2
F50.0
sS'nEMScaledErr'
p3
F0.8750085270106234
sS'nMMScaledErr'
p4
F0.45563126261062453
sS'nMMScaled'
p5
F2.82740162871778
sS'nEEScaled'
p6
F9.932841815054417
sS'nEEScaledErr'
p7
F0.7357752378155644
sS'nEE'
p8
F267.0
sS'nEMScaled'
p9
F14.33927197754383
s.