(dp0
S'nEM'
p1
F682.0
sS'nMM'
p2
F86.0
sS'nEMScaledErr'
p3
F1.1673467555734136
sS'nMMScaledErr'
p4
F0.5959411837301027
sS'nMMScaled'
p5
F4.902685157954693
sS'nEEScaled'
p6
F20.42672035470605
sS'nEEScaledErr'
p7
F1.0014246561674345
sS'nEE'
p8
F563.0
sS'nEMScaled'
p9
F26.53458569943905
s.