(dp0
S'nEM'
p1
F13826.0
sS'nMM'
p2
F2311.0
sS'nEMScaledErr'
p3
F6.370594306714579
sS'nMMScaledErr'
p4
F3.3265777134978896
sS'nMMScaled'
p5
F141.68179986067116
sS'nEEScaled'
p6
F461.3362159729004
sS'nEEScaledErr'
p7
F5.207264331902142
sS'nEE'
p8
F10472.0
sS'nEMScaled'
p9
F644.822605073452
s.